target datalayout = "e-m:e-p270:32:32-p271:32:32-p272:64:64-i64:64-i128:128-f80:128-n8:16:32:64-S128"
target triple = "x86_64-pc-linux-gnu"

%struct.FFStream = type { %struct.AVStream, ptr, i32, ptr, i32, ptr, i32, %struct.anon.1, i32, i32, %struct.FFFrac, ptr, ptr, i32, i32, i64, i64, i32, i32, i32, i64, i64, i64, i32, i64, i64, i64, i32, i32, [17 x i64], [17 x i8], [17 x i64], i64, i8, i8, %struct.AVRational, %struct.AVProbeData, ptr, i64, i32, i32, i32, ptr, i32, i32, i64, i64, ptr, %struct.AVRational }
%struct.AVStream = type { ptr, i32, i32, ptr, ptr, %struct.AVRational, i64, i64, i64, i32, i32, %struct.AVRational, ptr, %struct.AVRational, %struct.AVPacket, i32, %struct.AVRational, i32 }
%struct.AVPacket = type { ptr, i64, i64, ptr, i32, i32, i32, ptr, i32, i64, i64, ptr, ptr, %struct.AVRational }
%struct.anon.1 = type { ptr, i32 }
%struct.FFFrac = type { i64, i64, i64 }
%struct.AVProbeData = type { ptr, ptr, i32, ptr }
%struct.AVRational = type { i32, i32 }
%struct.AVFormatContext = type { ptr, ptr, ptr, ptr, ptr, i32, i32, ptr, i32, ptr, i32, ptr, ptr, i64, i64, i64, i32, i32, i32, i64, i64, ptr, i32, i32, ptr, i32, i32, i32, i32, ptr, i64, i32, i32, %struct.AVIOInterruptCB, i32, i32, i32, i32, i64, i32, i32, i32, i32, i32, i32, i32, i32, i32, i32, i32, i32, i64, i32, i32, i32, i32, i32, ptr, ptr, ptr, ptr, i32, ptr, ptr, ptr, ptr, i32, ptr, ptr, i64, ptr, ptr, ptr, i64 }
%struct.AVIOInterruptCB = type { ptr, ptr }
%struct.AVInputFormat = type { ptr, ptr, i32, ptr, ptr, ptr, ptr }
%struct.AVCodecContext = type { ptr, i32, i32, ptr, i32, i32, ptr, ptr, ptr, i64, i32, i32, ptr, i32, %struct.AVRational, %struct.AVRational, %struct.AVRational, i32, i32, i32, i32, i32, %struct.AVRational, i32, i32, i32, i32, i32, i32, i32, i32, i32, i32, i32, ptr, ptr, i32, float, float, float, float, float, float, float, float, float, i32, i32, i32, i32, i32, i32, i32, i32, i32, i32, i32, i32, ptr, ptr, ptr, i32, i32, i32, i32, i32, i32, i32, i32, i32, i32, %struct.AVChannelLayout, i32, i32, i32, i32, i32, i32, i32, i32, ptr, i32, i32, i32, float, float, i32, i32, i32, i32, i32, ptr, i64, i64, float, float, i32, i32, ptr, ptr, i32, i32, i32, i32, i32, ptr, ptr, ptr, ptr, i32, i32, [8 x i64], i32, i32, i32, i32, i32, i32, i32, ptr, ptr, i32, i32, i32, i32, i32, i32, i32, i32, i32, i32, ptr, ptr, i32, i32, ptr, ptr, ptr, ptr, i32, i32, i64, i32, i32, i64, ptr, i64, ptr, i32, ptr, i32 }
%struct.AVChannelLayout = type { i32, i32, %union.anon.2, ptr }
%union.anon.2 = type { i64 }
%struct.AVCodecParameters = type { i32, i32, i32, ptr, i32, ptr, i32, i32, i64, i32, i32, i32, i32, i32, i32, %struct.AVRational, %struct.AVRational, i32, i32, i32, i32, i32, i32, i32, %struct.AVChannelLayout, i32, i32, i32, i32, i32, i32 }
%struct.AVCodecParserContext = type { ptr, ptr, i64, i64, i64, i32, i32, i64, i64, i64, i64, i32, i32, [4 x i64], [4 x i64], [4 x i64], i32, i64, [4 x i64], i32, i32, i32, i32, [4 x i64], i64, i64, i32, i32, i32, i32, i32, i32, i32, i32, i32 }
%struct.AVCodecDescriptor = type { i32, i32, ptr, ptr, i32, ptr, ptr }

; Function Attrs: alwaysinline nounwind uwtable
define internal ptr @ffstream(ptr noundef %0) #3 {
  %2 = alloca ptr, align 8
  store ptr %0, ptr %2, align 8, !tbaa !4
  %3 = load ptr, ptr %2, align 8, !tbaa !4
  ret ptr %3
}

; Function Attrs: nounwind uwtable
define internal void @compute_frame_duration(ptr noundef %0, ptr noundef %1, ptr noundef %2, ptr noundef %3, ptr noundef %4, ptr noundef %5) #0 {
  %7 = alloca ptr, align 8
  %8 = alloca ptr, align 8
  %9 = alloca ptr, align 8
  %10 = alloca ptr, align 8
  %11 = alloca ptr, align 8
  %12 = alloca ptr, align 8
  %13 = alloca ptr, align 8
  %14 = alloca %struct.AVRational, align 4
  %15 = alloca i32, align 4
  %16 = alloca i32, align 4
  %17 = alloca i32, align 4
  store ptr %0, ptr %7, align 8, !tbaa !46
  store ptr %1, ptr %8, align 8, !tbaa !361
  store ptr %2, ptr %9, align 8, !tbaa !361
  store ptr %3, ptr %10, align 8, !tbaa !4
  store ptr %4, ptr %11, align 8, !tbaa !352
  store ptr %5, ptr %12, align 8, !tbaa !124
  call void @llvm.lifetime.start.p0(i64 8, ptr %13) #13
  %18 = load ptr, ptr %10, align 8, !tbaa !4
  %19 = call ptr @ffstream(ptr noundef %18)
  store ptr %19, ptr %13, align 8, !tbaa !11
  call void @llvm.lifetime.start.p0(i64 8, ptr %14) #13
  %20 = load ptr, ptr %13, align 8, !tbaa !11
  %21 = getelementptr inbounds nuw %struct.FFStream, ptr %20, i32 0, i32 5
  %22 = load ptr, ptr %21, align 8, !tbaa !107
  %23 = getelementptr inbounds nuw %struct.AVCodecContext, ptr %22, i32 0, i32 16
  call void @llvm.memcpy.p0.p0.i64(ptr align 4 %14, ptr align 4 %23, i64 8, i1 false), !tbaa.struct !195
  call void @llvm.lifetime.start.p0(i64 4, ptr %15) #13
  call void @llvm.lifetime.start.p0(i64 4, ptr %16) #13
  %24 = load ptr, ptr %8, align 8, !tbaa !361
  store i32 0, ptr %24, align 4, !tbaa !50
  %25 = load ptr, ptr %9, align 8, !tbaa !361
  store i32 0, ptr %25, align 4, !tbaa !50
  %26 = load ptr, ptr %10, align 8, !tbaa !4
  %27 = getelementptr inbounds nuw %struct.AVStream, ptr %26, i32 0, i32 3
  %28 = load ptr, ptr %27, align 8, !tbaa !118
  %29 = getelementptr inbounds nuw %struct.AVCodecParameters, ptr %28, i32 0, i32 0
  %30 = load i32, ptr %29, align 8, !tbaa !191
  switch i32 %30, label %241 [
    i32 0, label %31
    i32 1, label %198
  ]

31:                                               ; preds = %6
  %32 = load ptr, ptr %10, align 8, !tbaa !4
  %33 = getelementptr inbounds nuw %struct.AVStream, ptr %32, i32 0, i32 16
  %34 = getelementptr inbounds nuw %struct.AVRational, ptr %33, i32 0, i32 0
  %35 = load i32, ptr %34, align 4, !tbaa !194
  %36 = icmp ne i32 %35, 0
  br i1 %36, label %37, label %55

37:                                               ; preds = %31
  %38 = load ptr, ptr %11, align 8, !tbaa !352
  %39 = icmp ne ptr %38, null
  br i1 %39, label %40, label %44

40:                                               ; preds = %37
  %41 = getelementptr inbounds nuw %struct.AVRational, ptr %14, i32 0, i32 0
  %42 = load i32, ptr %41, align 4, !tbaa !188
  %43 = icmp ne i32 %42, 0
  br i1 %43, label %55, label %44

44:                                               ; preds = %40, %37
  %45 = load ptr, ptr %10, align 8, !tbaa !4
  %46 = getelementptr inbounds nuw %struct.AVStream, ptr %45, i32 0, i32 16
  %47 = getelementptr inbounds nuw %struct.AVRational, ptr %46, i32 0, i32 1
  %48 = load i32, ptr %47, align 4, !tbaa !247
  %49 = load ptr, ptr %8, align 8, !tbaa !361
  store i32 %48, ptr %49, align 4, !tbaa !50
  %50 = load ptr, ptr %10, align 8, !tbaa !4
  %51 = getelementptr inbounds nuw %struct.AVStream, ptr %50, i32 0, i32 16
  %52 = getelementptr inbounds nuw %struct.AVRational, ptr %51, i32 0, i32 0
  %53 = load i32, ptr %52, align 4, !tbaa !194
  %54 = load ptr, ptr %9, align 8, !tbaa !361
  store i32 %53, ptr %54, align 4, !tbaa !50
  br label %197

55:                                               ; preds = %40, %31
  %56 = load ptr, ptr %7, align 8, !tbaa !46
  %57 = getelementptr inbounds nuw %struct.AVFormatContext, ptr %56, i32 0, i32 1
  %58 = load ptr, ptr %57, align 8, !tbaa !65
  %59 = getelementptr inbounds nuw %struct.AVInputFormat, ptr %58, i32 0, i32 2
  %60 = load i32, ptr %59, align 8, !tbaa !80
  %61 = and i32 %60, 128
  %62 = icmp ne i32 %61, 0
  br i1 %62, label %63, label %90

63:                                               ; preds = %55
  %64 = getelementptr inbounds nuw %struct.AVRational, ptr %14, i32 0, i32 0
  %65 = load i32, ptr %64, align 4, !tbaa !188
  %66 = icmp ne i32 %65, 0
  br i1 %66, label %90, label %67

67:                                               ; preds = %63
  %68 = load ptr, ptr %10, align 8, !tbaa !4
  %69 = getelementptr inbounds nuw %struct.AVStream, ptr %68, i32 0, i32 13
  %70 = getelementptr inbounds nuw %struct.AVRational, ptr %69, i32 0, i32 0
  %71 = load i32, ptr %70, align 8, !tbaa !199
  %72 = icmp ne i32 %71, 0
  br i1 %72, label %73, label %90

73:                                               ; preds = %67
  %74 = load ptr, ptr %10, align 8, !tbaa !4
  %75 = getelementptr inbounds nuw %struct.AVStream, ptr %74, i32 0, i32 13
  %76 = getelementptr inbounds nuw %struct.AVRational, ptr %75, i32 0, i32 1
  %77 = load i32, ptr %76, align 4, !tbaa !362
  %78 = icmp ne i32 %77, 0
  br i1 %78, label %79, label %90

79:                                               ; preds = %73
  %80 = load ptr, ptr %10, align 8, !tbaa !4
  %81 = getelementptr inbounds nuw %struct.AVStream, ptr %80, i32 0, i32 13
  %82 = getelementptr inbounds nuw %struct.AVRational, ptr %81, i32 0, i32 1
  %83 = load i32, ptr %82, align 4, !tbaa !362
  %84 = load ptr, ptr %8, align 8, !tbaa !361
  store i32 %83, ptr %84, align 4, !tbaa !50
  %85 = load ptr, ptr %10, align 8, !tbaa !4
  %86 = getelementptr inbounds nuw %struct.AVStream, ptr %85, i32 0, i32 13
  %87 = getelementptr inbounds nuw %struct.AVRational, ptr %86, i32 0, i32 0
  %88 = load i32, ptr %87, align 8, !tbaa !199
  %89 = load ptr, ptr %9, align 8, !tbaa !361
  store i32 %88, ptr %89, align 4, !tbaa !50
  br label %196

90:                                               ; preds = %73, %67, %63, %55
  %91 = load ptr, ptr %10, align 8, !tbaa !4
  %92 = getelementptr inbounds nuw %struct.AVStream, ptr %91, i32 0, i32 5
  %93 = getelementptr inbounds nuw %struct.AVRational, ptr %92, i32 0, i32 0
  %94 = load i32, ptr %93, align 8, !tbaa !193
  %95 = sext i32 %94 to i64
  %96 = mul nsw i64 %95, 1000
  %97 = load ptr, ptr %10, align 8, !tbaa !4
  %98 = getelementptr inbounds nuw %struct.AVStream, ptr %97, i32 0, i32 5
  %99 = getelementptr inbounds nuw %struct.AVRational, ptr %98, i32 0, i32 1
  %100 = load i32, ptr %99, align 4, !tbaa !192
  %101 = sext i32 %100 to i64
  %102 = icmp sgt i64 %96, %101
  br i1 %102, label %103, label %114

103:                                              ; preds = %90
  %104 = load ptr, ptr %10, align 8, !tbaa !4
  %105 = getelementptr inbounds nuw %struct.AVStream, ptr %104, i32 0, i32 5
  %106 = getelementptr inbounds nuw %struct.AVRational, ptr %105, i32 0, i32 0
  %107 = load i32, ptr %106, align 8, !tbaa !193
  %108 = load ptr, ptr %8, align 8, !tbaa !361
  store i32 %107, ptr %108, align 4, !tbaa !50
  %109 = load ptr, ptr %10, align 8, !tbaa !4
  %110 = getelementptr inbounds nuw %struct.AVStream, ptr %109, i32 0, i32 5
  %111 = getelementptr inbounds nuw %struct.AVRational, ptr %110, i32 0, i32 1
  %112 = load i32, ptr %111, align 4, !tbaa !192
  %113 = load ptr, ptr %9, align 8, !tbaa !361
  store i32 %112, ptr %113, align 4, !tbaa !50
  br label %195

114:                                              ; preds = %90
  %115 = getelementptr inbounds nuw %struct.AVRational, ptr %14, i32 0, i32 1
  %116 = load i32, ptr %115, align 4, !tbaa !189
  %117 = sext i32 %116 to i64
  %118 = mul nsw i64 %117, 1000
  %119 = getelementptr inbounds nuw %struct.AVRational, ptr %14, i32 0, i32 0
  %120 = load i32, ptr %119, align 4, !tbaa !188
  %121 = sext i32 %120 to i64
  %122 = icmp sgt i64 %118, %121
  br i1 %122, label %123, label %194

123:                                              ; preds = %114
  call void @llvm.lifetime.start.p0(i64 4, ptr %17) #13
  %124 = load ptr, ptr %13, align 8, !tbaa !11
  %125 = getelementptr inbounds nuw %struct.FFStream, ptr %124, i32 0, i32 47
  %126 = load ptr, ptr %125, align 8, !tbaa !121
  %127 = icmp ne ptr %126, null
  br i1 %127, label %128, label %136

128:                                              ; preds = %123
  %129 = load ptr, ptr %13, align 8, !tbaa !11
  %130 = getelementptr inbounds nuw %struct.FFStream, ptr %129, i32 0, i32 47
  %131 = load ptr, ptr %130, align 8, !tbaa !121
  %132 = getelementptr inbounds nuw %struct.AVCodecDescriptor, ptr %131, i32 0, i32 4
  %133 = load i32, ptr %132, align 8, !tbaa !203
  %134 = and i32 %133, 16
  %135 = icmp ne i32 %134, 0
  br label %136

136:                                              ; preds = %128, %123
  %137 = phi i1 [ false, %123 ], [ %135, %128 ]
  %138 = select i1 %137, i32 2, i32 1
  store i32 %138, ptr %17, align 4, !tbaa !50
  %139 = load ptr, ptr %8, align 8, !tbaa !361
  %140 = load ptr, ptr %9, align 8, !tbaa !361
  %141 = getelementptr inbounds nuw %struct.AVRational, ptr %14, i32 0, i32 1
  %142 = load i32, ptr %141, align 4, !tbaa !189
  %143 = sext i32 %142 to i64
  %144 = getelementptr inbounds nuw %struct.AVRational, ptr %14, i32 0, i32 0
  %145 = load i32, ptr %144, align 4, !tbaa !188
  %146 = sext i32 %145 to i64
  %147 = load i32, ptr %17, align 4, !tbaa !50
  %148 = sext i32 %147 to i64
  %149 = mul nsw i64 %146, %148
  %150 = call i32 @av_reduce(ptr noundef %139, ptr noundef %140, i64 noundef %143, i64 noundef %149, i64 noundef 2147483647)
  %151 = load ptr, ptr %11, align 8, !tbaa !352
  %152 = icmp ne ptr %151, null
  br i1 %152, label %153, label %174

153:                                              ; preds = %136
  %154 = load ptr, ptr %11, align 8, !tbaa !352
  %155 = getelementptr inbounds nuw %struct.AVCodecParserContext, ptr %154, i32 0, i32 6
  %156 = load i32, ptr %155, align 4, !tbaa !241
  %157 = icmp ne i32 %156, 0
  br i1 %157, label %158, label %174

158:                                              ; preds = %153
  %159 = load ptr, ptr %8, align 8, !tbaa !361
  %160 = load ptr, ptr %9, align 8, !tbaa !361
  %161 = load ptr, ptr %8, align 8, !tbaa !361
  %162 = load i32, ptr %161, align 4, !tbaa !50
  %163 = sext i32 %162 to i64
  %164 = load ptr, ptr %11, align 8, !tbaa !352
  %165 = getelementptr inbounds nuw %struct.AVCodecParserContext, ptr %164, i32 0, i32 6
  %166 = load i32, ptr %165, align 4, !tbaa !241
  %167 = sext i32 %166 to i64
  %168 = add nsw i64 1, %167
  %169 = mul nsw i64 %163, %168
  %170 = load ptr, ptr %9, align 8, !tbaa !361
  %171 = load i32, ptr %170, align 4, !tbaa !50
  %172 = sext i32 %171 to i64
  %173 = call i32 @av_reduce(ptr noundef %159, ptr noundef %160, i64 noundef %169, i64 noundef %172, i64 noundef 2147483647)
  br label %174

174:                                              ; preds = %158, %153, %136
  %175 = load ptr, ptr %13, align 8, !tbaa !11
  %176 = getelementptr inbounds nuw %struct.FFStream, ptr %175, i32 0, i32 47
  %177 = load ptr, ptr %176, align 8, !tbaa !121
  %178 = icmp ne ptr %177, null
  br i1 %178, label %179, label %193

179:                                              ; preds = %174
  %180 = load ptr, ptr %13, align 8, !tbaa !11
  %181 = getelementptr inbounds nuw %struct.FFStream, ptr %180, i32 0, i32 47
  %182 = load ptr, ptr %181, align 8, !tbaa !121
  %183 = getelementptr inbounds nuw %struct.AVCodecDescriptor, ptr %182, i32 0, i32 4
  %184 = load i32, ptr %183, align 8, !tbaa !203
  %185 = and i32 %184, 16
  %186 = icmp ne i32 %185, 0
  br i1 %186, label %187, label %193

187:                                              ; preds = %179
  %188 = load ptr, ptr %11, align 8, !tbaa !352
  %189 = icmp ne ptr %188, null
  br i1 %189, label %193, label %190

190:                                              ; preds = %187
  %191 = load ptr, ptr %9, align 8, !tbaa !361
  store i32 0, ptr %191, align 4, !tbaa !50
  %192 = load ptr, ptr %8, align 8, !tbaa !361
  store i32 0, ptr %192, align 4, !tbaa !50
  br label %193

193:                                              ; preds = %190, %187, %179, %174
  call void @llvm.lifetime.end.p0(i64 4, ptr %17) #13
  br label %194

194:                                              ; preds = %193, %114
  br label %195

195:                                              ; preds = %194, %103
  br label %196

196:                                              ; preds = %195, %79
  br label %197

197:                                              ; preds = %196, %44
  br label %242

198:                                              ; preds = %6
  %199 = load ptr, ptr %13, align 8, !tbaa !11
  %200 = getelementptr inbounds nuw %struct.FFStream, ptr %199, i32 0, i32 6
  %201 = load i32, ptr %200, align 8, !tbaa !217
  %202 = icmp ne i32 %201, 0
  br i1 %202, label %203, label %216

203:                                              ; preds = %198
  %204 = load ptr, ptr %13, align 8, !tbaa !11
  %205 = getelementptr inbounds nuw %struct.FFStream, ptr %204, i32 0, i32 5
  %206 = load ptr, ptr %205, align 8, !tbaa !107
  %207 = load ptr, ptr %12, align 8, !tbaa !124
  %208 = getelementptr inbounds nuw %struct.AVPacket, ptr %207, i32 0, i32 4
  %209 = load i32, ptr %208, align 8, !tbaa !129
  %210 = call i32 @av_get_audio_frame_duration(ptr noundef %206, i32 noundef %209)
  store i32 %210, ptr %15, align 4, !tbaa !50
  %211 = load ptr, ptr %13, align 8, !tbaa !11
  %212 = getelementptr inbounds nuw %struct.FFStream, ptr %211, i32 0, i32 5
  %213 = load ptr, ptr %212, align 8, !tbaa !107
  %214 = getelementptr inbounds nuw %struct.AVCodecContext, ptr %213, i32 0, i32 69
  %215 = load i32, ptr %214, align 8, !tbaa !165
  store i32 %215, ptr %16, align 4, !tbaa !50
  br label %229

216:                                              ; preds = %198
  %217 = load ptr, ptr %10, align 8, !tbaa !4
  %218 = getelementptr inbounds nuw %struct.AVStream, ptr %217, i32 0, i32 3
  %219 = load ptr, ptr %218, align 8, !tbaa !118
  %220 = load ptr, ptr %12, align 8, !tbaa !124
  %221 = getelementptr inbounds nuw %struct.AVPacket, ptr %220, i32 0, i32 4
  %222 = load i32, ptr %221, align 8, !tbaa !129
  %223 = call i32 @av_get_audio_frame_duration2(ptr noundef %219, i32 noundef %222)
  store i32 %223, ptr %15, align 4, !tbaa !50
  %224 = load ptr, ptr %10, align 8, !tbaa !4
  %225 = getelementptr inbounds nuw %struct.AVStream, ptr %224, i32 0, i32 3
  %226 = load ptr, ptr %225, align 8, !tbaa !118
  %227 = getelementptr inbounds nuw %struct.AVCodecParameters, ptr %226, i32 0, i32 25
  %228 = load i32, ptr %227, align 8, !tbaa !166
  store i32 %228, ptr %16, align 4, !tbaa !50
  br label %229

229:                                              ; preds = %216, %203
  %230 = load i32, ptr %15, align 4, !tbaa !50
  %231 = icmp sle i32 %230, 0
  br i1 %231, label %235, label %232

232:                                              ; preds = %229
  %233 = load i32, ptr %16, align 4, !tbaa !50
  %234 = icmp sle i32 %233, 0
  br i1 %234, label %235, label %236

235:                                              ; preds = %232, %229
  br label %242

236:                                              ; preds = %232
  %237 = load i32, ptr %15, align 4, !tbaa !50
  %238 = load ptr, ptr %8, align 8, !tbaa !361
  store i32 %237, ptr %238, align 4, !tbaa !50
  %239 = load i32, ptr %16, align 4, !tbaa !50
  %240 = load ptr, ptr %9, align 8, !tbaa !361
  store i32 %239, ptr %240, align 4, !tbaa !50
  br label %242

241:                                              ; preds = %6
  br label %242

242:                                              ; preds = %241, %236, %235, %197
  call void @llvm.lifetime.end.p0(i64 4, ptr %16) #13
  call void @llvm.lifetime.end.p0(i64 4, ptr %15) #13
  call void @llvm.lifetime.end.p0(i64 8, ptr %14) #13
  call void @llvm.lifetime.end.p0(i64 8, ptr %13) #13
  ret void
}