; Function Attrs: nounwind uwtable
define internal fastcc void @compute_frame_duration(ptr noundef readonly captures(none) %0, ptr noundef nonnull initializes((0, 4)) %1, ptr noundef nonnull initializes((0, 4)) %2, ptr noundef readonly captures(none) %3, ptr noundef readonly captures(address_is_null) %4, ptr noundef readonly captures(none) %5) unnamed_addr #1 {
  %7 = getelementptr inbounds nuw i8, ptr %3, i64 248
  %8 = load ptr, ptr %7, align 8, !tbaa !93
  %9 = getelementptr inbounds nuw i8, ptr %8, i64 100
  %.sroa.0.0.copyload = load i32, ptr %9, align 4, !tbaa !54
  %.sroa.7.0..sroa_idx = getelementptr inbounds nuw i8, ptr %8, i64 104
  %.sroa.7.0.copyload = load i32, ptr %.sroa.7.0..sroa_idx, align 4, !tbaa !54
  store i32 0, ptr %1, align 4, !tbaa !54
  store i32 0, ptr %2, align 4, !tbaa !54
  %10 = getelementptr inbounds nuw i8, ptr %3, i64 16
  %11 = load ptr, ptr %10, align 8, !tbaa !104
  %12 = load i32, ptr %11, align 8, !tbaa !129
  switch i32 %12, label %104 [
    i32 0, label %13
    i32 1, label %87
  ]

13:                                               ; preds = %6
  %14 = getelementptr inbounds nuw i8, ptr %3, i64 204
  %15 = load i32, ptr %14, align 4, !tbaa !203
  %.not73 = icmp eq i32 %15, 0
  br i1 %.not73, label %23, label %16

16:                                               ; preds = %13
  %17 = icmp ne ptr %4, null
  %18 = icmp ne i32 %.sroa.0.0.copyload, 0
  %or.cond = select i1 %17, i1 %18, i1 false
  br i1 %or.cond, label %.thread, label %19

19:                                               ; preds = %16
  %20 = getelementptr inbounds nuw i8, ptr %3, i64 208
  %21 = load i32, ptr %20, align 4, !tbaa !346
  store i32 %21, ptr %1, align 4, !tbaa !54
  %22 = load i32, ptr %14, align 4, !tbaa !203
  store i32 %22, ptr %2, align 4, !tbaa !54
  br label %104

23:                                               ; preds = %13
  %24 = getelementptr inbounds nuw i8, ptr %0, i64 8
  %25 = load ptr, ptr %24, align 8, !tbaa !49
  %26 = getelementptr inbounds nuw i8, ptr %25, i64 16
  %27 = load i32, ptr %26, align 8, !tbaa !56
  %28 = and i32 %27, 128
  %29 = icmp eq i32 %28, 0
  %30 = icmp ne i32 %.sroa.0.0.copyload, 0
  %or.cond5 = select i1 %29, i1 true, i1 %30
  br i1 %or.cond5, label %.thread, label %31

31:                                               ; preds = %23
  %32 = getelementptr inbounds nuw i8, ptr %3, i64 88
  %33 = load i32, ptr %32, align 8, !tbaa !207
  %.not74 = icmp eq i32 %33, 0
  br i1 %.not74, label %.thread, label %34

34:                                               ; preds = %31
  %35 = getelementptr inbounds nuw i8, ptr %3, i64 92
  %36 = load i32, ptr %35, align 4, !tbaa !347
  %.not75 = icmp eq i32 %36, 0
  br i1 %.not75, label %.thread, label %37

37:                                               ; preds = %34
  store i32 %36, ptr %1, align 4, !tbaa !54
  %38 = load i32, ptr %32, align 8, !tbaa !207
  store i32 %38, ptr %2, align 4, !tbaa !54
  br label %104

.thread:                                          ; preds = %16, %34, %31, %23
  %39 = getelementptr inbounds nuw i8, ptr %3, i64 32
  %40 = load i32, ptr %39, align 8, !tbaa !116
  %41 = sext i32 %40 to i64
  %42 = mul nsw i64 %41, 1000
  %43 = getelementptr inbounds nuw i8, ptr %3, i64 36
  %44 = load i32, ptr %43, align 4, !tbaa !115
  %45 = sext i32 %44 to i64
  %46 = icmp sgt i64 %42, %45
  br i1 %46, label %47, label %49

47:                                               ; preds = %.thread
  store i32 %40, ptr %1, align 4, !tbaa !54
  %48 = load i32, ptr %43, align 4, !tbaa !115
  store i32 %48, ptr %2, align 4, !tbaa !54
  br label %104

49:                                               ; preds = %.thread
  %50 = sext i32 %.sroa.7.0.copyload to i64
  %51 = mul nsw i64 %50, 1000
  %52 = sext i32 %.sroa.0.0.copyload to i64
  %53 = icmp sgt i64 %51, %52
  br i1 %53, label %54, label %104

54:                                               ; preds = %49
  %55 = getelementptr inbounds nuw i8, ptr %3, i64 848
  %56 = load ptr, ptr %55, align 8, !tbaa !107
  %.not76 = icmp eq ptr %56, null
  br i1 %.not76, label %62, label %57

57:                                               ; preds = %54
  %58 = getelementptr inbounds nuw i8, ptr %56, i64 24
  %59 = load i32, ptr %58, align 8, !tbaa !196
  %60 = and i32 %59, 16
  %.not77 = icmp eq i32 %60, 0
  %61 = select i1 %.not77, i64 1, i64 2
  br label %62

62:                                               ; preds = %57, %54
  %63 = phi i64 [ 1, %54 ], [ %61, %57 ]
  %64 = mul nsw i64 %63, %52
  %65 = tail call i32 @av_reduce(ptr noundef nonnull %1, ptr noundef nonnull %2, i64 noundef %50, i64 noundef %64, i64 noundef 2147483647) #15
  %66 = icmp ne ptr %4, null
  br i1 %66, label %67, label %79

67:                                               ; preds = %62
  %68 = getelementptr inbounds nuw i8, ptr %4, i64 44
  %69 = load i32, ptr %68, align 4, !tbaa !238
  %.not78 = icmp eq i32 %69, 0
  br i1 %.not78, label %79, label %70

70:                                               ; preds = %67
  %71 = load i32, ptr %1, align 4, !tbaa !54
  %72 = sext i32 %71 to i64
  %73 = sext i32 %69 to i64
  %74 = add nsw i64 %73, 1
  %75 = mul nsw i64 %74, %72
  %76 = load i32, ptr %2, align 4, !tbaa !54
  %77 = sext i32 %76 to i64
  %78 = tail call i32 @av_reduce(ptr noundef nonnull %1, ptr noundef nonnull %2, i64 noundef %75, i64 noundef %77, i64 noundef 2147483647) #15
  br label %79

79:                                               ; preds = %70, %67, %62
  %80 = load ptr, ptr %55, align 8, !tbaa !107
  %.not79 = icmp eq ptr %80, null
  br i1 %.not79, label %104, label %81

81:                                               ; preds = %79
  %82 = getelementptr inbounds nuw i8, ptr %80, i64 24
  %83 = load i32, ptr %82, align 8, !tbaa !196
  %84 = and i32 %83, 16
  %85 = icmp eq i32 %84, 0
  %or.cond7 = or i1 %66, %85
  br i1 %or.cond7, label %104, label %86

86:                                               ; preds = %81
  store i32 0, ptr %2, align 4, !tbaa !54
  store i32 0, ptr %1, align 4, !tbaa !54
  br label %104

87:                                               ; preds = %6
  %88 = getelementptr inbounds nuw i8, ptr %3, i64 256
  %89 = load i32, ptr %88, align 8, !tbaa !214
  %.not = icmp eq i32 %89, 0
  %90 = getelementptr inbounds nuw i8, ptr %5, i64 32
  %91 = load i32, ptr %90, align 8, !tbaa !136
  br i1 %.not, label %96, label %92

92:                                               ; preds = %87
  %93 = tail call i32 @av_get_audio_frame_duration(ptr noundef nonnull %8, i32 noundef %91) #15
  %94 = load ptr, ptr %7, align 8, !tbaa !93
  %95 = getelementptr inbounds nuw i8, ptr %94, i64 344
  br label %100

96:                                               ; preds = %87
  %97 = tail call i32 @av_get_audio_frame_duration2(ptr noundef nonnull %11, i32 noundef %91) #15
  %98 = load ptr, ptr %10, align 8, !tbaa !104
  %99 = getelementptr inbounds nuw i8, ptr %98, i64 152
  br label %100

100:                                              ; preds = %96, %92
  %.066.in = phi ptr [ %95, %92 ], [ %99, %96 ]
  %.0 = phi i32 [ %93, %92 ], [ %97, %96 ]
  %.066 = load i32, ptr %.066.in, align 8, !tbaa !54
  %101 = icmp slt i32 %.0, 1
  %102 = icmp slt i32 %.066, 1
  %or.cond9 = select i1 %101, i1 true, i1 %102
  br i1 %or.cond9, label %104, label %103

103:                                              ; preds = %100
  store i32 %.0, ptr %1, align 4, !tbaa !54
  store i32 %.066, ptr %2, align 4, !tbaa !54
  br label %104

104:                                              ; preds = %79, %81, %86, %6, %100, %19, %47, %49, %37, %103
  ret void
}